target datalayout = "e-m:e-p270:32:32-p271:32:32-p272:64:64-i64:64-i128:128-f80:128-n8:16:32:64-S128"
target triple = "x86_64-pc-linux-gnu"

@.str = private unnamed_addr constant [2 x i8] c"/\00", align 1

; Function Attrs: nounwind uwtable
define internal ptr @list_env_get(ptr noundef %0, ptr noundef %1) #0 {
  %3 = alloca ptr, align 8
  %4 = alloca ptr, align 8
  %5 = alloca ptr, align 8
  %6 = alloca i64, align 8
  %7 = alloca i32, align 4
  store ptr %0, ptr %4, align 8, !tbaa !3
  store ptr %1, ptr %5, align 8, !tbaa !9
  call void @llvm.lifetime.start.p0(i64 8, ptr %6) #8
  %8 = load ptr, ptr %5, align 8, !tbaa !9
  %9 = icmp ne ptr null, %8
  br i1 %9, label %10, label %42

10:                                               ; preds = %2
  %11 = load ptr, ptr %4, align 8, !tbaa !3
  %12 = call i64 @strlen(ptr noundef %11) #9
  store i64 %12, ptr %6, align 8, !tbaa !15
  br label %13

13:                                               ; preds = %38, %10
  %14 = load ptr, ptr %5, align 8, !tbaa !9
  %15 = load ptr, ptr %14, align 8, !tbaa !3
  %16 = icmp ne ptr null, %15
  br i1 %16, label %17, label %41

17:                                               ; preds = %13
  %18 = load ptr, ptr %4, align 8, !tbaa !3
  %19 = load ptr, ptr %5, align 8, !tbaa !9
  %20 = load ptr, ptr %19, align 8, !tbaa !3
  %21 = load i64, ptr %6, align 8, !tbaa !15
  %22 = call i32 @strncmp(ptr noundef %18, ptr noundef %20, i64 noundef %21) #9
  %23 = icmp eq i32 0, %22
  br i1 %23, label %24, label %38

24:                                               ; preds = %17
  %25 = load ptr, ptr %5, align 8, !tbaa !9
  %26 = load ptr, ptr %25, align 8, !tbaa !3
  %27 = load i64, ptr %6, align 8, !tbaa !15
  %28 = getelementptr inbounds nuw i8, ptr %26, i64 %27
  %29 = load i8, ptr %28, align 1, !tbaa !8
  %30 = sext i8 %29 to i32
  %31 = icmp eq i32 61, %30
  br i1 %31, label %32, label %38

32:                                               ; preds = %24
  %33 = load ptr, ptr %5, align 8, !tbaa !9
  %34 = load ptr, ptr %33, align 8, !tbaa !3
  %35 = load i64, ptr %6, align 8, !tbaa !15
  %36 = getelementptr inbounds nuw i8, ptr %34, i64 %35
  %37 = getelementptr inbounds i8, ptr %36, i64 1
  store ptr %37, ptr %3, align 8
  store i32 1, ptr %7, align 4
  br label %45

38:                                               ; preds = %24, %17
  %39 = load ptr, ptr %5, align 8, !tbaa !9
  %40 = getelementptr inbounds nuw ptr, ptr %39, i32 1
  store ptr %40, ptr %5, align 8, !tbaa !9
  br label %13, !llvm.loop !17

41:                                               ; preds = %13
  br label %42

42:                                               ; preds = %41, %2
  %43 = load ptr, ptr %4, align 8, !tbaa !3
  %44 = call ptr @getenv(ptr noundef %43) #8
  store ptr %44, ptr %3, align 8
  store i32 1, ptr %7, align 4
  br label %45

45:                                               ; preds = %42, %32
  call void @llvm.lifetime.end.p0(i64 8, ptr %6) #8
  %46 = load ptr, ptr %3, align 8
  ret ptr %46
}

; Function Attrs: nounwind uwtable
define noalias ptr @pmix_path_access(ptr noundef %0, ptr noundef %1, i32 noundef %2) #0 {
  %4 = alloca ptr, align 8
  %5 = alloca ptr, align 8
  %6 = alloca ptr, align 8
  %7 = alloca i32, align 4
  %8 = alloca ptr, align 8
  %9 = alloca i32, align 4
  store ptr %0, ptr %5, align 8, !tbaa !3
  store ptr %1, ptr %6, align 8, !tbaa !3
  store i32 %2, ptr %7, align 4, !tbaa !11
  call void @llvm.lifetime.start.p0(i64 8, ptr %8) #8
  store ptr null, ptr %8, align 8, !tbaa !3
  %10 = load ptr, ptr %6, align 8, !tbaa !3
  %11 = icmp eq ptr null, %10
  br i1 %11, label %12, label %15

12:                                               ; preds = %3
  %13 = load ptr, ptr %5, align 8, !tbaa !3
  %14 = call noalias ptr (i32, ...) @pmix_os_path(i32 noundef 0, ptr noundef %13, ptr noundef null)
  store ptr %14, ptr %8, align 8, !tbaa !3
  br label %19

15:                                               ; preds = %3
  %16 = load ptr, ptr %6, align 8, !tbaa !3
  %17 = load ptr, ptr %5, align 8, !tbaa !3
  %18 = call noalias ptr (i32, ...) @pmix_os_path(i32 noundef 0, ptr noundef %16, ptr noundef %17, ptr noundef null)
  store ptr %18, ptr %8, align 8, !tbaa !3
  br label %19

19:                                               ; preds = %15, %12
  %20 = load ptr, ptr %8, align 8, !tbaa !3
  %21 = icmp eq ptr null, %20
  br i1 %21, label %22, label %23

22:                                               ; preds = %19
  store ptr null, ptr %4, align 8
  store i32 1, ptr %9, align 4
  br label %32

23:                                               ; preds = %19
  %24 = load ptr, ptr %8, align 8, !tbaa !3
  %25 = load i32, ptr %7, align 4, !tbaa !11
  %26 = call i32 @access(ptr noundef %24, i32 noundef %25) #8
  %27 = icmp ne i32 0, %26
  br i1 %27, label %28, label %30

28:                                               ; preds = %23
  %29 = load ptr, ptr %8, align 8, !tbaa !3
  call void @free(ptr noundef %29) #8
  store ptr null, ptr %4, align 8
  store i32 1, ptr %9, align 4
  br label %32

30:                                               ; preds = %23
  %31 = load ptr, ptr %8, align 8, !tbaa !3
  store ptr %31, ptr %4, align 8
  store i32 1, ptr %9, align 4
  br label %32

32:                                               ; preds = %30, %28, %22
  call void @llvm.lifetime.end.p0(i64 8, ptr %8) #8
  %33 = load ptr, ptr %4, align 8
  ret ptr %33
}

; Function Attrs: nounwind uwtable
define zeroext i1 @pmix_path_is_absolute(ptr noundef %0) #0 {
  %2 = alloca i1, align 1
  %3 = alloca ptr, align 8
  store ptr %0, ptr %3, align 8, !tbaa !3
  %4 = load i8, ptr @.str, align 1, !tbaa !8
  %5 = sext i8 %4 to i32
  %6 = load ptr, ptr %3, align 8, !tbaa !3
  %7 = load i8, ptr %6, align 1, !tbaa !8
  %8 = sext i8 %7 to i32
  %9 = icmp eq i32 %5, %8
  br i1 %9, label %10, label %11

10:                                               ; preds = %1
  store i1 true, ptr %2, align 1
  br label %12

11:                                               ; preds = %1
  store i1 false, ptr %2, align 1
  br label %12

12:                                               ; preds = %11, %10
  %13 = load i1, ptr %2, align 1
  ret i1 %13
}

; Function Attrs: nounwind uwtable
define noalias ptr @pmix_path_find(ptr noundef %0, ptr noundef %1, i32 noundef %2, ptr noundef %3) #0 {
  %5 = alloca ptr, align 8
  %6 = alloca ptr, align 8
  %7 = alloca ptr, align 8
  %8 = alloca i32, align 4
  %9 = alloca ptr, align 8
  %10 = alloca ptr, align 8
  %11 = alloca ptr, align 8
  %12 = alloca ptr, align 8
  %13 = alloca ptr, align 8
  %14 = alloca i32, align 4
  %15 = alloca i32, align 4
  store ptr %0, ptr %6, align 8, !tbaa !3
  store ptr %1, ptr %7, align 8, !tbaa !9
  store i32 %2, ptr %8, align 4, !tbaa !11
  store ptr %3, ptr %9, align 8, !tbaa !9
  call void @llvm.lifetime.start.p0(i64 8, ptr %10) #8
  call void @llvm.lifetime.start.p0(i64 8, ptr %11) #8
  call void @llvm.lifetime.start.p0(i64 8, ptr %12) #8
  call void @llvm.lifetime.start.p0(i64 8, ptr %13) #8
  call void @llvm.lifetime.start.p0(i64 4, ptr %14) #8
  %16 = load ptr, ptr %6, align 8, !tbaa !3
  %17 = call zeroext i1 @pmix_path_is_absolute(ptr noundef %16)
  br i1 %17, label %18, label %22

18:                                               ; preds = %4
  %19 = load ptr, ptr %6, align 8, !tbaa !3
  %20 = load i32, ptr %8, align 4, !tbaa !11
  %21 = call noalias ptr @pmix_path_access(ptr noundef %19, ptr noundef null, i32 noundef %20)
  store ptr %21, ptr %5, align 8
  store i32 1, ptr %15, align 4
  br label %121

22:                                               ; preds = %4
  store ptr null, ptr %10, align 8, !tbaa !3
  store i32 0, ptr %14, align 4, !tbaa !11
  br label %23

23:                                               ; preds = %116, %22
  %24 = load ptr, ptr %7, align 8, !tbaa !9
  %25 = load i32, ptr %14, align 4, !tbaa !11
  %26 = sext i32 %25 to i64
  %27 = getelementptr inbounds ptr, ptr %24, i64 %26
  %28 = load ptr, ptr %27, align 8, !tbaa !3
  %29 = icmp ne ptr %28, null
  br i1 %29, label %30, label %33

30:                                               ; preds = %23
  %31 = load ptr, ptr %10, align 8, !tbaa !3
  %32 = icmp eq ptr null, %31
  br label %33

33:                                               ; preds = %30, %23
  %34 = phi i1 [ false, %23 ], [ %32, %30 ]
  br i1 %34, label %35, label %119

35:                                               ; preds = %33
  %36 = load ptr, ptr %7, align 8, !tbaa !9
  %37 = load i32, ptr %14, align 4, !tbaa !11
  %38 = sext i32 %37 to i64
  %39 = getelementptr inbounds ptr, ptr %36, i64 %38
  %40 = load ptr, ptr %39, align 8, !tbaa !3
  %41 = load i8, ptr %40, align 1, !tbaa !8
  %42 = sext i8 %41 to i32
  %43 = icmp eq i32 36, %42
  br i1 %43, label %44, label %107

44:                                               ; preds = %35
  %45 = load ptr, ptr %7, align 8, !tbaa !9
  %46 = load i32, ptr %14, align 4, !tbaa !11
  %47 = sext i32 %46 to i64
  %48 = getelementptr inbounds ptr, ptr %45, i64 %47
  %49 = load ptr, ptr %48, align 8, !tbaa !3
  %50 = load i8, ptr @.str, align 1, !tbaa !8
  %51 = sext i8 %50 to i32
  %52 = call ptr @strchr(ptr noundef %49, i32 noundef %51) #9
  store ptr %52, ptr %11, align 8, !tbaa !3
  %53 = load ptr, ptr %11, align 8, !tbaa !3
  %54 = icmp ne ptr %53, null
  br i1 %54, label %55, label %57

55:                                               ; preds = %44
  %56 = load ptr, ptr %11, align 8, !tbaa !3
  store i8 0, ptr %56, align 1, !tbaa !8
  br label %57

57:                                               ; preds = %55, %44
  %58 = load ptr, ptr %7, align 8, !tbaa !9
  %59 = load i32, ptr %14, align 4, !tbaa !11
  %60 = sext i32 %59 to i64
  %61 = getelementptr inbounds ptr, ptr %58, i64 %60
  %62 = load ptr, ptr %61, align 8, !tbaa !3
  %63 = getelementptr inbounds i8, ptr %62, i64 1
  %64 = load ptr, ptr %9, align 8, !tbaa !9
  %65 = call ptr @list_env_get(ptr noundef %63, ptr noundef %64)
  store ptr %65, ptr %12, align 8, !tbaa !3
  %66 = load ptr, ptr %11, align 8, !tbaa !3
  %67 = icmp ne ptr %66, null
  br i1 %67, label %68, label %71

68:                                               ; preds = %57
  %69 = load i8, ptr @.str, align 1, !tbaa !8
  %70 = load ptr, ptr %11, align 8, !tbaa !3
  store i8 %69, ptr %70, align 1, !tbaa !8
  br label %71

71:                                               ; preds = %68, %57
  %72 = load ptr, ptr %12, align 8, !tbaa !3
  %73 = icmp ne ptr null, %72
  br i1 %73, label %74, label %106

74:                                               ; preds = %71
  %75 = load ptr, ptr %11, align 8, !tbaa !3
  %76 = icmp ne ptr %75, null
  br i1 %76, label %82, label %77

77:                                               ; preds = %74
  %78 = load ptr, ptr %6, align 8, !tbaa !3
  %79 = load ptr, ptr %12, align 8, !tbaa !3
  %80 = load i32, ptr %8, align 4, !tbaa !11
  %81 = call noalias ptr @pmix_path_access(ptr noundef %78, ptr noundef %79, i32 noundef %80)
  store ptr %81, ptr %10, align 8, !tbaa !3
  br label %105

82:                                               ; preds = %74
  %83 = load ptr, ptr %12, align 8, !tbaa !3
  %84 = call i64 @strlen(ptr noundef %83) #9
  %85 = load ptr, ptr %11, align 8, !tbaa !3
  %86 = call i64 @strlen(ptr noundef %85) #9
  %87 = add i64 %84, %86
  %88 = add i64 %87, 1
  %89 = call noalias ptr @malloc(i64 noundef %88) #10
  store ptr %89, ptr %13, align 8, !tbaa !3
  %90 = load ptr, ptr %13, align 8, !tbaa !3
  %91 = icmp eq ptr null, %90
  br i1 %91, label %92, label %93

92:                                               ; preds = %82
  store ptr null, ptr %5, align 8
  store i32 1, ptr %15, align 4
  br label %121

93:                                               ; preds = %82
  %94 = load ptr, ptr %13, align 8, !tbaa !3
  %95 = load ptr, ptr %12, align 8, !tbaa !3
  %96 = call ptr @strcpy(ptr noundef %94, ptr noundef %95) #8
  %97 = load ptr, ptr %13, align 8, !tbaa !3
  %98 = load ptr, ptr %11, align 8, !tbaa !3
  %99 = call ptr @strcat(ptr noundef %97, ptr noundef %98) #8
  %100 = load ptr, ptr %6, align 8, !tbaa !3
  %101 = load ptr, ptr %13, align 8, !tbaa !3
  %102 = load i32, ptr %8, align 4, !tbaa !11
  %103 = call noalias ptr @pmix_path_access(ptr noundef %100, ptr noundef %101, i32 noundef %102)
  store ptr %103, ptr %10, align 8, !tbaa !3
  %104 = load ptr, ptr %13, align 8, !tbaa !3
  call void @free(ptr noundef %104) #8
  br label %105

105:                                              ; preds = %93, %77
  br label %106

106:                                              ; preds = %105, %71
  br label %116

107:                                              ; preds = %35
  %108 = load ptr, ptr %6, align 8, !tbaa !3
  %109 = load ptr, ptr %7, align 8, !tbaa !9
  %110 = load i32, ptr %14, align 4, !tbaa !11
  %111 = sext i32 %110 to i64
  %112 = getelementptr inbounds ptr, ptr %109, i64 %111
  %113 = load ptr, ptr %112, align 8, !tbaa !3
  %114 = load i32, ptr %8, align 4, !tbaa !11
  %115 = call noalias ptr @pmix_path_access(ptr noundef %108, ptr noundef %113, i32 noundef %114)
  store ptr %115, ptr %10, align 8, !tbaa !3
  br label %116

116:                                              ; preds = %107, %106
  %117 = load i32, ptr %14, align 4, !tbaa !11
  %118 = add nsw i32 %117, 1
  store i32 %118, ptr %14, align 4, !tbaa !11
  br label %23, !llvm.loop !13

119:                                              ; preds = %33
  %120 = load ptr, ptr %10, align 8, !tbaa !3
  store ptr %120, ptr %5, align 8
  store i32 1, ptr %15, align 4
  br label %121

121:                                              ; preds = %119, %92, %18
  call void @llvm.lifetime.end.p0(i64 4, ptr %14) #8
  call void @llvm.lifetime.end.p0(i64 8, ptr %13) #8
  call void @llvm.lifetime.end.p0(i64 8, ptr %12) #8
  call void @llvm.lifetime.end.p0(i64 8, ptr %11) #8
  call void @llvm.lifetime.end.p0(i64 8, ptr %10) #8
  %122 = load ptr, ptr %5, align 8
  ret ptr %122
}