; Function Attrs: nounwind uwtable
define noalias ptr @pmix_path_find(ptr noundef %0, ptr noundef readonly captures(none) %1, i32 noundef %2, ptr noundef readonly captures(address_is_null) %3) local_unnamed_addr #1 {
  %5 = load i8, ptr %0, align 1, !tbaa !3
  %6 = icmp eq i8 %5, 47
  br i1 %6, label %8, label %.preheader

.preheader:                                       ; preds = %4
  %7 = load ptr, ptr %1, align 8, !tbaa !6
  %.not66 = icmp eq ptr %7, null
  br i1 %.not66, label %pmix_path_access.exit, label %.lr.ph

.lr.ph:                                           ; preds = %.preheader
  %.not.i47 = icmp eq ptr %3, null
  br label %14

8:                                                ; preds = %4
  %9 = tail call noalias ptr (i32, ...) @pmix_os_path(i32 noundef 0, ptr noundef nonnull %0, ptr noundef null) #14
  %10 = icmp eq ptr %9, null
  br i1 %10, label %pmix_path_access.exit, label %11

11:                                               ; preds = %8
  %12 = tail call i32 @access(ptr noundef nonnull %9, i32 noundef %2) #14
  %.not.i = icmp eq i32 %12, 0
  br i1 %.not.i, label %pmix_path_access.exit, label %13

13:                                               ; preds = %11
  tail call void @free(ptr noundef nonnull %9) #14
  br label %pmix_path_access.exit

14:                                               ; preds = %.lr.ph, %pmix_path_access.exit51
  %indvars.iv = phi i64 [ 0, %.lr.ph ], [ %indvars.iv.next, %pmix_path_access.exit51 ]
  %15 = phi ptr [ %7, %.lr.ph ], [ %69, %pmix_path_access.exit51 ]
  %16 = getelementptr inbounds nuw ptr, ptr %1, i64 %indvars.iv
  %17 = load i8, ptr %15, align 1, !tbaa !3
  %18 = icmp eq i8 %17, 36
  br i1 %18, label %19, label %63

19:                                               ; preds = %14
  %20 = tail call ptr @strchr(ptr noundef nonnull dereferenceable(1) %15, i32 noundef 47) #15
  %.not = icmp eq ptr %20, null
  br i1 %.not, label %22, label %21

21:                                               ; preds = %19
  store i8 0, ptr %20, align 1, !tbaa !3
  %.pre = load ptr, ptr %16, align 8, !tbaa !6
  br label %22

22:                                               ; preds = %21, %19
  %23 = phi ptr [ %.pre, %21 ], [ %15, %19 ]
  %24 = getelementptr inbounds nuw i8, ptr %23, i64 1
  br i1 %.not.i47, label %.loopexit.i, label %25

25:                                               ; preds = %22
  %26 = tail call i64 @strlen(ptr noundef nonnull readonly dereferenceable(1) %24) #15
  %27 = load ptr, ptr %3, align 8, !tbaa !6
  %.not1517.i = icmp eq ptr %27, null
  br i1 %.not1517.i, label %.loopexit.i, label %.lr.ph.i

.lr.ph.i:                                         ; preds = %25, %38
  %28 = phi ptr [ %40, %38 ], [ %27, %25 ]
  %.01218.i = phi ptr [ %39, %38 ], [ %3, %25 ]
  %29 = tail call i32 @strncmp(ptr noundef nonnull readonly %24, ptr noundef nonnull %28, i64 noundef %26) #15
  %30 = icmp eq i32 %29, 0
  br i1 %30, label %31, label %38

31:                                               ; preds = %.lr.ph.i
  %32 = getelementptr inbounds nuw i8, ptr %28, i64 %26
  %33 = load i8, ptr %32, align 1, !tbaa !3
  %34 = icmp eq i8 %33, 61
  br i1 %34, label %35, label %38

35:                                               ; preds = %31
  %36 = getelementptr inbounds nuw i8, ptr %28, i64 %26
  %37 = getelementptr inbounds nuw i8, ptr %36, i64 1
  br label %list_env_get.exit

38:                                               ; preds = %31, %.lr.ph.i
  %39 = getelementptr inbounds nuw i8, ptr %.01218.i, i64 8
  %40 = load ptr, ptr %39, align 8, !tbaa !6
  %.not15.i = icmp eq ptr %40, null
  br i1 %.not15.i, label %.loopexit.i, label %.lr.ph.i, !llvm.loop !9

.loopexit.i:                                      ; preds = %38, %25, %22
  %41 = tail call ptr @getenv(ptr noundef nonnull readonly %24) #14
  br label %list_env_get.exit

list_env_get.exit:                                ; preds = %35, %.loopexit.i
  %.0.i = phi ptr [ %37, %35 ], [ %41, %.loopexit.i ]
  br i1 %.not, label %42, label %.thread

42:                                               ; preds = %list_env_get.exit
  %.not46 = icmp eq ptr %.0.i, null
  br i1 %.not46, label %pmix_path_access.exit51, label %43

.thread:                                          ; preds = %list_env_get.exit
  store i8 47, ptr %20, align 1, !tbaa !3
  %.not4660 = icmp eq ptr %.0.i, null
  br i1 %.not4660, label %pmix_path_access.exit51, label %48

43:                                               ; preds = %42
  %44 = tail call noalias ptr (i32, ...) @pmix_os_path(i32 noundef 0, ptr noundef nonnull %.0.i, ptr noundef nonnull %0, ptr noundef null) #14
  %45 = icmp eq ptr %44, null
  br i1 %45, label %pmix_path_access.exit51, label %46

46:                                               ; preds = %43
  %47 = tail call i32 @access(ptr noundef nonnull %44, i32 noundef %2) #14
  %.not.i49 = icmp eq i32 %47, 0
  br i1 %.not.i49, label %pmix_path_access.exit, label %pmix_path_access.exit51.sink.split

48:                                               ; preds = %.thread
  %49 = tail call i64 @strlen(ptr noundef nonnull dereferenceable(1) %.0.i) #15
  %50 = tail call i64 @strlen(ptr noundef nonnull dereferenceable(1) %20) #15
  %51 = add i64 %49, 1
  %52 = add i64 %51, %50
  %53 = tail call noalias ptr @malloc(i64 noundef %52) #16
  %54 = icmp eq ptr %53, null
  br i1 %54, label %pmix_path_access.exit, label %55

55:                                               ; preds = %48
  %56 = tail call ptr @strcpy(ptr noundef nonnull dereferenceable(1) %53, ptr noundef nonnull dereferenceable(1) %.0.i) #14
  %57 = tail call ptr @strcat(ptr noundef nonnull dereferenceable(1) %53, ptr noundef nonnull dereferenceable(1) %20) #14
  %58 = tail call noalias ptr (i32, ...) @pmix_os_path(i32 noundef 0, ptr noundef nonnull %53, ptr noundef nonnull %0, ptr noundef null) #14
  %59 = icmp eq ptr %58, null
  br i1 %59, label %pmix_path_access.exit51.sink.split, label %60

60:                                               ; preds = %55
  %61 = tail call i32 @access(ptr noundef nonnull %58, i32 noundef %2) #14
  %.not.i53 = icmp eq i32 %61, 0
  br i1 %.not.i53, label %pmix_path_access.exit51.sink.split, label %62

62:                                               ; preds = %60
  tail call void @free(ptr noundef nonnull %58) #14
  br label %pmix_path_access.exit51.sink.split

63:                                               ; preds = %14
  %64 = tail call noalias ptr (i32, ...) @pmix_os_path(i32 noundef 0, ptr noundef nonnull %15, ptr noundef nonnull %0, ptr noundef null) #14
  %65 = icmp eq ptr %64, null
  br i1 %65, label %pmix_path_access.exit51, label %66

66:                                               ; preds = %63
  %67 = tail call i32 @access(ptr noundef nonnull %64, i32 noundef %2) #14
  %.not.i57 = icmp eq i32 %67, 0
  br i1 %.not.i57, label %pmix_path_access.exit, label %pmix_path_access.exit51.sink.split

pmix_path_access.exit51.sink.split:               ; preds = %66, %62, %60, %55, %46
  %.sink = phi ptr [ %44, %46 ], [ %53, %55 ], [ %53, %60 ], [ %53, %62 ], [ %64, %66 ]
  %.1.ph = phi ptr [ null, %46 ], [ null, %55 ], [ %58, %60 ], [ null, %62 ], [ null, %66 ]
  tail call void @free(ptr noundef nonnull %.sink) #14
  br label %pmix_path_access.exit51

pmix_path_access.exit51:                          ; preds = %pmix_path_access.exit51.sink.split, %63, %43, %.thread, %42
  %.1 = phi ptr [ null, %42 ], [ null, %.thread ], [ null, %43 ], [ null, %63 ], [ %.1.ph, %pmix_path_access.exit51.sink.split ]
  %indvars.iv.next = add nuw nsw i64 %indvars.iv, 1
  %68 = getelementptr inbounds nuw ptr, ptr %1, i64 %indvars.iv.next
  %69 = load ptr, ptr %68, align 8, !tbaa !6
  %70 = icmp ne ptr %69, null
  %71 = icmp eq ptr %.1, null
  %72 = and i1 %71, %70
  br i1 %72, label %14, label %pmix_path_access.exit, !llvm.loop !11

pmix_path_access.exit:                            ; preds = %66, %46, %48, %pmix_path_access.exit51, %.preheader, %13, %11, %8
  %.039 = phi ptr [ null, %13 ], [ null, %8 ], [ %9, %11 ], [ null, %.preheader ], [ %44, %46 ], [ %64, %66 ], [ null, %48 ], [ %.1, %pmix_path_access.exit51 ]
  ret ptr %.039
}